target datalayout = "e-m:e-p270:32:32-p271:32:32-p272:64:64-i64:64-i128:128-f80:128-n8:16:32:64-S128"
target triple = "x86_64-pc-linux-gnu"

%class.QString = type { %struct.QArrayDataPointer }
%struct.QArrayDataPointer = type { ptr, ptr, i64 }
%class.BluetoothAttServerAttributesDialog = type { %class.WiresharkDialog.base, ptr, %struct._tapinfo_t, %class.QMenu }
%class.WiresharkDialog.base = type <{ %class.GeometryStateDialog, ptr, i8, [7 x i8], %class.QString, %class.QList, i32, i8 }>
%class.GeometryStateDialog = type { %class.QDialog, %class.QString }
%class.QDialog = type { %class.QWidget }
%class.QWidget = type { %class.QObject, %class.QPaintDevice.base, ptr }
%class.QObject = type { ptr, %class.QScopedPointer }
%class.QScopedPointer = type { ptr }
%class.QPaintDevice.base = type <{ ptr, i16 }>
%class.QList = type { %struct.QArrayDataPointer.0 }
%struct.QArrayDataPointer.0 = type { ptr, ptr, i64 }
%struct._tapinfo_t = type { ptr, ptr, ptr }
%class.QMenu = type { %class.QWidget }
%class.Ui_BluetoothAttServerAttributesDialog = type { ptr, ptr, ptr, ptr, ptr, ptr, ptr, ptr, ptr, ptr, ptr, ptr, ptr }
%class.QPoint = type { i32, i32 }

; Function Attrs: mustprogress uwtable
define void @_ZN34BluetoothAttServerAttributesDialog16tableContextMenuERK6QPoint(ptr noundef nonnull align 8 dereferenceable(208) %0, ptr noundef nonnull align 4 dereferenceable(8) %1) #0 align 2 {
  %3 = alloca ptr, align 8
  %4 = alloca ptr, align 8
  %5 = alloca %class.QPoint, align 4
  store ptr %0, ptr %3, align 8
  store ptr %1, ptr %4, align 8
  %6 = load ptr, ptr %3, align 8
  %7 = getelementptr inbounds %class.BluetoothAttServerAttributesDialog, ptr %6, i32 0, i32 3
  %8 = getelementptr inbounds %class.BluetoothAttServerAttributesDialog, ptr %6, i32 0, i32 1
  %9 = load ptr, ptr %8, align 8
  %10 = getelementptr inbounds %class.Ui_BluetoothAttServerAttributesDialog, ptr %9, i32 0, i32 7
  %11 = load ptr, ptr %10, align 8
  %12 = call noundef ptr @_ZNK19QAbstractScrollArea8viewportEv(ptr noundef nonnull align 8 dereferenceable(40) %11)
  %13 = load ptr, ptr %4, align 8
  %14 = call i64 @_ZNK7QWidget11mapToGlobalERK6QPoint(ptr noundef nonnull align 8 dereferenceable(40) %12, ptr noundef nonnull align 4 dereferenceable(8) %13)
  store i64 %14, ptr %5, align 4
  call void @_ZN5QMenu5popupERK6QPointP7QAction(ptr noundef nonnull align 8 dereferenceable(40) %7, ptr noundef nonnull align 4 dereferenceable(8) %5, ptr noundef null)
  ret void
}